target datalayout = "e-m:e-p270:32:32-p271:32:32-p272:64:64-i64:64-i128:128-f80:128-n8:16:32:64-S128"
target triple = "x86_64-pc-linux-gnu"

%struct.lxb_html_token_t = type { ptr, ptr, i64, i64, ptr, ptr, ptr, ptr, ptr, i64, i64, i32 }

; Function Attrs: nounwind uwtable
define hidden i32 @lxb_html_token_data_skip_ws_begin(ptr noundef %0) #0 {
  %2 = alloca i32, align 4
  %3 = alloca ptr, align 8
  %4 = alloca ptr, align 8
  %5 = alloca ptr, align 8
  store ptr %0, ptr %3, align 8
  %6 = load ptr, ptr %3, align 8
  %7 = getelementptr inbounds %struct.lxb_html_token_t, ptr %6, i32 0, i32 4
  %8 = load ptr, ptr %7, align 8
  store ptr %8, ptr %4, align 8
  %9 = load ptr, ptr %3, align 8
  %10 = getelementptr inbounds %struct.lxb_html_token_t, ptr %9, i32 0, i32 5
  %11 = load ptr, ptr %10, align 8
  store ptr %11, ptr %5, align 8
  br label %12

12:                                               ; preds = %36, %1
  %13 = load ptr, ptr %4, align 8
  %14 = load ptr, ptr %5, align 8
  %15 = icmp ult ptr %13, %14
  br i1 %15, label %16, label %39

16:                                               ; preds = %12
  %17 = load ptr, ptr %4, align 8
  %18 = load i8, ptr %17, align 1
  %19 = zext i8 %18 to i32
  switch i32 %19, label %21 [
    i32 9, label %20
    i32 10, label %20
    i32 13, label %20
    i32 32, label %20
  ]

20:                                               ; preds = %16, %16, %16, %16
  br label %36

21:                                               ; preds = %16
  %22 = load ptr, ptr %4, align 8
  %23 = load ptr, ptr %3, align 8
  %24 = getelementptr inbounds %struct.lxb_html_token_t, ptr %23, i32 0, i32 4
  %25 = load ptr, ptr %24, align 8
  %26 = ptrtoint ptr %22 to i64
  %27 = ptrtoint ptr %25 to i64
  %28 = sub i64 %26, %27
  %29 = load ptr, ptr %3, align 8
  %30 = getelementptr inbounds %struct.lxb_html_token_t, ptr %29, i32 0, i32 0
  %31 = load ptr, ptr %30, align 8
  %32 = getelementptr inbounds i8, ptr %31, i64 %28
  store ptr %32, ptr %30, align 8
  %33 = load ptr, ptr %4, align 8
  %34 = load ptr, ptr %3, align 8
  %35 = getelementptr inbounds %struct.lxb_html_token_t, ptr %34, i32 0, i32 4
  store ptr %33, ptr %35, align 8
  store i32 0, ptr %2, align 4
  br label %54

36:                                               ; preds = %20
  %37 = load ptr, ptr %4, align 8
  %38 = getelementptr inbounds i8, ptr %37, i32 1
  store ptr %38, ptr %4, align 8
  br label %12

39:                                               ; preds = %12
  %40 = load ptr, ptr %4, align 8
  %41 = load ptr, ptr %3, align 8
  %42 = getelementptr inbounds %struct.lxb_html_token_t, ptr %41, i32 0, i32 4
  %43 = load ptr, ptr %42, align 8
  %44 = ptrtoint ptr %40 to i64
  %45 = ptrtoint ptr %43 to i64
  %46 = sub i64 %44, %45
  %47 = load ptr, ptr %3, align 8
  %48 = getelementptr inbounds %struct.lxb_html_token_t, ptr %47, i32 0, i32 0
  %49 = load ptr, ptr %48, align 8
  %50 = getelementptr inbounds i8, ptr %49, i64 %46
  store ptr %50, ptr %48, align 8
  %51 = load ptr, ptr %4, align 8
  %52 = load ptr, ptr %3, align 8
  %53 = getelementptr inbounds %struct.lxb_html_token_t, ptr %52, i32 0, i32 4
  store ptr %51, ptr %53, align 8
  store i32 0, ptr %2, align 4
  br label %54

54:                                               ; preds = %39, %21
  %55 = load i32, ptr %2, align 4
  ret i32 %55
}