; Function Attrs: nofree norecurse nosync nounwind memory(read, argmem: readwrite, inaccessiblemem: none) uwtable
define hidden noundef i32 @lxb_html_token_data_skip_ws_begin(ptr nocapture noundef %0) local_unnamed_addr #4 {
  %2 = getelementptr inbounds i8, ptr %0, i64 32
  %3 = load ptr, ptr %2, align 8
  %4 = ptrtoint ptr %3 to i64
  %5 = getelementptr inbounds i8, ptr %0, i64 40
  %6 = load ptr, ptr %5, align 8
  %7 = icmp ult ptr %3, %6
  br i1 %7, label %.lr.ph.preheader, label %._crit_edge

.lr.ph.preheader:                                 ; preds = %1
  %8 = ptrtoint ptr %6 to i64
  %9 = sub i64 %8, %4
  %scevgep = getelementptr i8, ptr %3, i64 %9
  br label %.lr.ph

.lr.ph:                                           ; preds = %.lr.ph.preheader, %13
  %.01619 = phi ptr [ %14, %13 ], [ %3, %.lr.ph.preheader ]
  %10 = load i8, ptr %.01619, align 1
  switch i8 %10, label %11 [
    i8 9, label %13
    i8 10, label %13
    i8 13, label %13
    i8 32, label %13
  ]

11:                                               ; preds = %.lr.ph
  %12 = ptrtoint ptr %.01619 to i64
  br label %._crit_edge

13:                                               ; preds = %.lr.ph, %.lr.ph, %.lr.ph, %.lr.ph
  %14 = getelementptr inbounds i8, ptr %.01619, i64 1
  %exitcond.not = icmp eq ptr %14, %6
  br i1 %exitcond.not, label %._crit_edge.loopexit, label %.lr.ph

._crit_edge.loopexit:                             ; preds = %13
  %.pre = ptrtoint ptr %6 to i64
  br label %._crit_edge

._crit_edge:                                      ; preds = %1, %._crit_edge.loopexit, %11
  %.pre-phi.sink = phi i64 [ %12, %11 ], [ %.pre, %._crit_edge.loopexit ], [ %4, %1 ]
  %.01618 = phi ptr [ %.01619, %11 ], [ %scevgep, %._crit_edge.loopexit ], [ %3, %1 ]
  %15 = sub i64 %.pre-phi.sink, %4
  %16 = load ptr, ptr %0, align 8
  %17 = getelementptr inbounds i8, ptr %16, i64 %15
  store ptr %17, ptr %0, align 8
  store ptr %.01618, ptr %2, align 8
  ret i32 0
}